target datalayout = "e-m:e-p270:32:32-p271:32:32-p272:64:64-i64:64-i128:128-f80:128-n8:16:32:64-S128"
target triple = "x86_64-pc-linux-gnu"

%struct.anon.40 = type { i8 }
%"struct.hb::shared_ptr" = type { ptr }
%struct.hb_subset_input_t = type { %struct.hb_object_header_t, %union.anon, i32, i8, i8, %struct.hb_hashmap_t, %struct.hb_map_t }
%struct.hb_object_header_t = type { %struct.hb_reference_count_t, %struct.hb_atomic_int_t, %struct.hb_atomic_ptr_t }
%struct.hb_reference_count_t = type { %struct.hb_atomic_int_t }
%struct.hb_atomic_int_t = type { i32 }
%struct.hb_atomic_ptr_t = type { ptr }
%union.anon = type { %"struct.hb_subset_input_t::sets_t" }
%"struct.hb_subset_input_t::sets_t" = type { %"struct.hb::shared_ptr", %"struct.hb::shared_ptr", %"struct.hb::shared_ptr", %"struct.hb::shared_ptr", %"struct.hb::shared_ptr", %"struct.hb::shared_ptr", %"struct.hb::shared_ptr", %"struct.hb::shared_ptr" }
%struct.hb_hashmap_t = type { %struct.hb_object_header_t, i8, i16, i32, i32, i32, i32, ptr }
%struct.hb_map_t = type { %struct.hb_hashmap_t.0 }
%struct.hb_hashmap_t.0 = type { %struct.hb_object_header_t, i8, i16, i32, i32, i32, i32, ptr }
%struct.Triple = type { double, double, double }
%struct.hb_ot_var_axis_info_t = type { i32, i32, i32, i32, float, float, float, i32 }

@_ZL7hb_hash = internal constant %struct.anon.40 zeroinitializer, align 1

; Function Attrs: mustprogress nounwind uwtable
define internal noundef i32 @"_ZNK3$_34implIjTnPN12hb_enable_ifIXaasr3std11is_integralIT_EE5valuelestS2_Lm4EEvE4typeELPv0EEEN10_hb_head_tIjJDTmlcvjfp_Lj2654435761EEEE4typeERKS2_11hb_priorityILj1EE"(ptr noundef nonnull align 1 dereferenceable(1) %0, ptr noundef nonnull align 4 dereferenceable(4) %1) #0 align 2 {
  %3 = alloca ptr, align 8
  %4 = alloca ptr, align 8
  store ptr %0, ptr %3, align 8, !tbaa !56
  store ptr %1, ptr %4, align 8, !tbaa !48
  %5 = load ptr, ptr %4, align 8, !tbaa !48
  %6 = load i32, ptr %5, align 4, !tbaa !43
  %7 = mul i32 %6, -1640531535
  ret i32 %7
}

; Function Attrs: mustprogress nounwind uwtable
define internal noundef i32 @"_ZNK3$_3clIjEEN10_hb_head_tIjJDTcl4implfp_cv11hb_priorityILj16EE_EEEEE4typeERKT_"(ptr noundef nonnull align 1 dereferenceable(1) %0, ptr noundef nonnull align 4 dereferenceable(4) %1) #0 align 2 {
  %3 = alloca ptr, align 8
  %4 = alloca ptr, align 8
  store ptr %0, ptr %3, align 8, !tbaa !56
  store ptr %1, ptr %4, align 8, !tbaa !48
  %5 = load ptr, ptr %3, align 8
  %6 = load ptr, ptr %4, align 8, !tbaa !48
  %7 = call noundef i32 @"_ZNK3$_34implIjTnPN12hb_enable_ifIXaasr3std11is_integralIT_EE5valuelestS2_Lm4EEvE4typeELPv0EEEN10_hb_head_tIjJDTmlcvjfp_Lj2654435761EEEE4typeERKS2_11hb_priorityILj1EE"(ptr noundef nonnull align 1 dereferenceable(1) %5, ptr noundef nonnull align 4 dereferenceable(4) %6)
  ret i32 %7
}

; Function Attrs: mustprogress nounwind uwtable
define linkonce_odr dso_local noundef zeroext i1 @_ZN12hb_hashmap_tIj6TripleLb0EE3setIS0_EEbRKjOT_b(ptr noundef nonnull align 8 dereferenceable(48) %0, ptr noundef nonnull align 4 dereferenceable(4) %1, ptr noundef nonnull align 8 dereferenceable(24) %2, i1 noundef zeroext %3) #0 comdat align 2 {
  %5 = alloca ptr, align 8
  %6 = alloca ptr, align 8
  %7 = alloca ptr, align 8
  %8 = alloca i8, align 1
  store ptr %0, ptr %5, align 8, !tbaa !32
  store ptr %1, ptr %6, align 8, !tbaa !48
  store ptr %2, ptr %7, align 8, !tbaa !77
  %9 = zext i1 %3 to i8
  store i8 %9, ptr %8, align 1, !tbaa !79
  %10 = load ptr, ptr %5, align 8
  %11 = load ptr, ptr %6, align 8, !tbaa !48
  %12 = load ptr, ptr %6, align 8, !tbaa !48
  %13 = call noundef i32 @"_ZNK3$_3clIjEEN10_hb_head_tIjJDTcl4implfp_cv11hb_priorityILj16EE_EEEEE4typeERKT_"(ptr noundef nonnull align 1 dereferenceable(1) @_ZL7hb_hash, ptr noundef nonnull align 4 dereferenceable(4) %12)
  %14 = load ptr, ptr %7, align 8, !tbaa !77
  %15 = load i8, ptr %8, align 1, !tbaa !79, !range !80, !noundef !81
  %16 = trunc i8 %15 to i1
  %17 = call noundef zeroext i1 @_ZN12hb_hashmap_tIj6TripleLb0EE13set_with_hashIRKjS0_EEbOT_jOT0_b(ptr noundef nonnull align 8 dereferenceable(48) %10, ptr noundef nonnull align 4 dereferenceable(4) %11, i32 noundef %13, ptr noundef nonnull align 8 dereferenceable(24) %14, i1 noundef zeroext %16)
  ret i1 %17
}

; Function Attrs: mustprogress nounwind uwtable
define linkonce_odr dso_local void @_ZN6TripleC2Eddd(ptr noundef nonnull align 8 dereferenceable(24) %0, double noundef %1, double noundef %2, double noundef %3) unnamed_addr #0 comdat align 2 {
  %5 = alloca ptr, align 8
  %6 = alloca double, align 8
  %7 = alloca double, align 8
  %8 = alloca double, align 8
  store ptr %0, ptr %5, align 8, !tbaa !77
  store double %1, ptr %6, align 8, !tbaa !74
  store double %2, ptr %7, align 8, !tbaa !74
  store double %3, ptr %8, align 8, !tbaa !74
  %9 = load ptr, ptr %5, align 8
  %10 = getelementptr inbounds nuw %struct.Triple, ptr %9, i32 0, i32 0
  %11 = load double, ptr %6, align 8, !tbaa !74
  store double %11, ptr %10, align 8, !tbaa !82
  %12 = getelementptr inbounds nuw %struct.Triple, ptr %9, i32 0, i32 1
  %13 = load double, ptr %7, align 8, !tbaa !74
  store double %13, ptr %12, align 8, !tbaa !84
  %14 = getelementptr inbounds nuw %struct.Triple, ptr %9, i32 0, i32 2
  %15 = load double, ptr %8, align 8, !tbaa !74
  store double %15, ptr %14, align 8, !tbaa !85
  ret void
}

; Function Attrs: mustprogress nounwind uwtable
define dso_local i32 @hb_subset_input_pin_axis_to_default(ptr noundef %0, ptr noundef %1, i32 noundef %2) #0 {
  %4 = alloca i32, align 4
  %5 = alloca ptr, align 8
  %6 = alloca ptr, align 8
  %7 = alloca i32, align 4
  %8 = alloca %struct.hb_ot_var_axis_info_t, align 4
  %9 = alloca i32, align 4
  %10 = alloca double, align 8
  %11 = alloca %struct.Triple, align 8
  store ptr %0, ptr %5, align 8, !tbaa !4
  store ptr %1, ptr %6, align 8, !tbaa !65
  store i32 %2, ptr %7, align 4, !tbaa !43
  call void @llvm.lifetime.start.p0(i64 32, ptr %8) #13
  %12 = load ptr, ptr %6, align 8, !tbaa !65
  %13 = load i32, ptr %7, align 4, !tbaa !43
  %14 = call i32 @hb_ot_var_find_axis_info(ptr noundef %12, i32 noundef %13, ptr noundef %8)
  %15 = icmp ne i32 %14, 0
  br i1 %15, label %17, label %16

16:                                               ; preds = %3
  store i32 0, ptr %4, align 4
  store i32 1, ptr %9, align 4
  br label %28

17:                                               ; preds = %3
  call void @llvm.lifetime.start.p0(i64 8, ptr %10) #13
  %18 = getelementptr inbounds nuw %struct.hb_ot_var_axis_info_t, ptr %8, i32 0, i32 5
  %19 = load float, ptr %18, align 4, !tbaa !73
  %20 = fpext float %19 to double
  store double %20, ptr %10, align 8, !tbaa !74
  %21 = load ptr, ptr %5, align 8, !tbaa !4
  %22 = getelementptr inbounds nuw %struct.hb_subset_input_t, ptr %21, i32 0, i32 5
  call void @llvm.lifetime.start.p0(i64 24, ptr %11) #13
  %23 = load double, ptr %10, align 8, !tbaa !74
  %24 = load double, ptr %10, align 8, !tbaa !74
  %25 = load double, ptr %10, align 8, !tbaa !74
  call void @_ZN6TripleC2Eddd(ptr noundef nonnull align 8 dereferenceable(24) %11, double noundef %23, double noundef %24, double noundef %25)
  %26 = call noundef zeroext i1 @_ZN12hb_hashmap_tIj6TripleLb0EE3setIS0_EEbRKjOT_b(ptr noundef nonnull align 8 dereferenceable(48) %22, ptr noundef nonnull align 4 dereferenceable(4) %7, ptr noundef nonnull align 8 dereferenceable(24) %11, i1 noundef zeroext true)
  %27 = zext i1 %26 to i32
  store i32 %27, ptr %4, align 4
  call void @llvm.lifetime.end.p0(i64 24, ptr %11) #13
  store i32 1, ptr %9, align 4
  call void @llvm.lifetime.end.p0(i64 8, ptr %10) #13
  br label %28

28:                                               ; preds = %17, %16
  call void @llvm.lifetime.end.p0(i64 32, ptr %8) #13
  %29 = load i32, ptr %4, align 4
  ret i32 %29
}