; Function Attrs: mustprogress nounwind uwtable
define dso_local range(i32 0, 2) i32 @hb_subset_input_pin_axis_to_default(ptr noundef %0, ptr noundef %1, i32 noundef %2) local_unnamed_addr #0 {
  %4 = alloca i32, align 4
  %5 = alloca %struct.hb_ot_var_axis_info_t, align 4
  %6 = alloca %struct.Triple, align 8
  store i32 %2, ptr %4, align 4, !tbaa !52
  call void @llvm.lifetime.start.p0(i64 32, ptr nonnull %5) #21
  %7 = call i32 @hb_ot_var_find_axis_info(ptr noundef %1, i32 noundef %2, ptr noundef nonnull %5) #21
  %.not = icmp eq i32 %7, 0
  br i1 %.not, label %18, label %8

8:                                                ; preds = %3
  %9 = getelementptr inbounds nuw i8, ptr %5, i64 20
  %10 = load float, ptr %9, align 4, !tbaa !75
  %11 = fpext float %10 to double
  %12 = getelementptr inbounds nuw i8, ptr %0, i64 88
  call void @llvm.lifetime.start.p0(i64 24, ptr nonnull %6) #21
  store double %11, ptr %6, align 8, !tbaa !76
  %13 = getelementptr inbounds nuw i8, ptr %6, i64 8
  store double %11, ptr %13, align 8, !tbaa !79
  %14 = getelementptr inbounds nuw i8, ptr %6, i64 16
  store double %11, ptr %14, align 8, !tbaa !80
  %15 = mul i32 %2, -1640531535
  %16 = call noundef zeroext i1 @_ZN12hb_hashmap_tIj6TripleLb0EE13set_with_hashIRKjS0_EEbOT_jOT0_b(ptr noundef nonnull align 8 dereferenceable(48) %12, ptr noundef nonnull align 4 dereferenceable(4) %4, i32 noundef %15, ptr noundef nonnull align 8 dereferenceable(24) %6, i1 noundef zeroext true)
  %17 = zext i1 %16 to i32
  call void @llvm.lifetime.end.p0(i64 24, ptr nonnull %6) #21
  br label %18

18:                                               ; preds = %3, %8
  %.0 = phi i32 [ %17, %8 ], [ 0, %3 ]
  call void @llvm.lifetime.end.p0(i64 32, ptr nonnull %5) #21
  ret i32 %.0
}